Certificate:
    Data:
        Version: 3 (0x2)
        Serial Number: 3 (0x3)
    Signature Algorithm: sha1WithRSAEncryption
        Issuer: C=CN, ST=CQ, O=Clerware Inc., CN=Clerware CA
        Validity
            Not Before: Nov  3 05:41:10 2016 GMT
            Not After : Nov 17 05:41:10 2166 GMT
        Subject: C=CN, ST=CQ, O=Clerware Inc., CN=Clerware AIO
        Subject Public Key Info:
            Public Key Algorithm: rsaEncryption
                Public-Key: (1024 bit)
                Modulus:
                    00:b4:02:a2:39:cb:8e:d2:8c:65:4f:96:59:8c:09:
                    4c:4e:4d:be:4f:c8:bd:51:e3:bb:4c:e6:70:2b:19:
                    b6:3a:ad:6b:7e:54:f1:3b:7f:09:30:d0:92:46:0e:
                    e3:01:f8:5c:37:ae:35:2a:44:96:73:e7:e5:80:72:
                    60:17:ec:52:48:c5:47:7a:26:da:64:e4:a4:2a:fe:
                    c5:cd:87:81:99:ca:08:0a:4b:1b:a0:d6:58:43:60:
                    d7:97:63:64:c4:7f:fb:01:5a:68:1c:b1:57:81:0c:
                    08:01:e8:fb:20:7f:1e:26:66:3c:e8:82:64:96:41:
                    30:37:b7:f7:9e:fc:65:52:6d
                Exponent: 65537 (0x10001)
        X509v3 extensions:
            X509v3 Basic Constraints: 
                CA:FALSE
            Netscape Comment: 
                OpenSSL Generated Certificate
            X509v3 Subject Key Identifier: 
                C1:C4:1D:4F:76:38:55:62:BD:AA:FF:3B:6E:61:5E:02:B8:45:16:E9
            X509v3 Authority Key Identifier: 
                keyid:09:8A:D6:60:25:59:36:02:07:51:F3:43:69:B9:24:5A:38:22:C4:E8

    Signature Algorithm: sha1WithRSAEncryption
         ba:87:f7:be:1a:08:c8:c6:64:75:fe:d5:3f:82:9c:0c:d8:a1:
         15:dc:55:84:ab:31:01:da:e5:36:e3:c1:b1:c8:1c:0f:ef:24:
         e7:0c:c3:2c:91:77:ac:f6:d3:54:31:4d:11:d8:10:10:c2:0a:
         2c:c0:55:31:f0:14:e3:6f:9a:59:86:ee:b5:a3:72:5b:ac:44:
         4a:df:54:99:06:a2:08:32:ff:c6:8f:da:04:9e:e3:2a:4d:eb:
         f5:87:04:3b:80:3e:b3:67:a6:a2:c9:df:ba:e2:7b:02:1a:4a:
         04:47:bb:19:61:0a:e4:9e:2d:5d:df:06:60:25:36:14:7e:d1:
         c3:60
-----BEGIN CERTIFICATE-----
MIIChDCCAe2gAwIBAgIBAzANBgkqhkiG9w0BAQUFADBIMQswCQYDVQQGEwJDTjEL
MAkGA1UECAwCQ1ExFjAUBgNVBAoMDUNsZXJ3YXJlIEluYy4xFDASBgNVBAMMC0Ns
ZXJ3YXJlIENBMCAXDTE2MTEwMzA1NDExMFoYDzIxNjYxMTE3MDU0MTEwWjBJMQsw
CQYDVQQGEwJDTjELMAkGA1UECAwCQ1ExFjAUBgNVBAoMDUNsZXJ3YXJlIEluYy4x
FTATBgNVBAMMDENsZXJ3YXJlIEFJTzCBnzANBgkqhkiG9w0BAQEFAAOBjQAwgYkC
gYEAtAKiOcuO0oxlT5ZZjAlMTk2+T8i9UeO7TOZwKxm2Oq1rflTxO38JMNCSRg7j
AfhcN641KkSWc+flgHJgF+xSSMVHeibaZOSkKv7FzYeBmcoICksboNZYQ2DXl2Nk
xH/7AVpoHLFXgQwIAej7IH8eJmY86IJklkEwN7f3nvxlUm0CAwEAAaN7MHkwCQYD
VR0TBAIwADAsBglghkgBhvhCAQ0EHxYdT3BlblNTTCBHZW5lcmF0ZWQgQ2VydGlm
aWNhdGUwHQYDVR0OBBYEFMHEHU92OFVivar/O25hXgK4RRbpMB8GA1UdIwQYMBaA
FAmK1mAlWTYCB1HzQ2m5JFo4IsToMA0GCSqGSIb3DQEBBQUAA4GBALqH974aCMjG
ZHX+1T+CnAzYoRXcVYSrMQHa5TbjwbHIHA/vJOcMwyyRd6z201QxTRHYEBDCCizA
VTHwFONvmlmG7rWjclusRErfVJkGoggy/8aP2gSe4ypN6/WHBDuAPrNnpqLJ37ri
ewIaSgRHuxlhCuSeLV3fBmAlNhR+0cNg
-----END CERTIFICATE-----
